(dp0
S'J23A'
p1
S'#8C564B'
p2
sS'KEMF'
p3
S'#7F7F7F'
p4
sS'G30A'
p5
S'#D62728'
p6
sS'J63A'
p7
S'#E377C2'
p8
sS'J06A'
p9
S'#9467BD'
p10
sS'KENE'
p11
S'#BCBD22'
p12
sS'CZ'
p13
S'#FF7F0E'
p14
sS'G03A'
p15
S'#2CA02C'
p16
sS'AX'
p17
S'#1F77B4'
p18
s.