(dp0
S'KEMF'
p1
S'#FF7F00'
p2
sS'CI-J23A'
p3
S'#FB9A99'
p4
sS'CI-J63A'
p5
S'#E31A1C'
p6
sS'KENE'
p7
S'#CAB2D6'
p8
sS'CI-G03A'
p9
S'#1F78B4'
p10
sS'CZ'
p11
S'#FDBF6F'
p12
sS'AX'
p13
S'#A6CEE3'
p14
sS'CI-G30A'
p15
S'#B2DF8A'
p16
sS'CI-J06A'
p17
S'#33A02C'
p18
s.